ccopy_reg
_reconstructor
p1
(ctensorflow.contrib.learn.python.learn.preprocessing.text
VocabularyProcessor
p2
c__builtin__
object
p3
NtRp4
(dp5
S'vocabulary_'
p6
g1
(ctensorflow.contrib.learn.python.learn.preprocessing.categorical_vocabulary
CategoricalVocabulary
p7
g3
NtRp8
(dp9
S'_freeze'
p10
I01
sS'_unknown_token'
p11
S'<UNK>'
p12
sS'_support_reverse'
p13
I01
sS'_freq'
p14
ccollections
defaultdict
p15
(c__builtin__
int
p16
tRp17
S'all'
p18
I5
sS'code'
p19
I1
sS'chinese'
p20
I1
sS'rob'
p21
I1
sS'worms'
p22
I8
sS'baby'
p23
I1
sS'mile'
p24
I1
sS'controversial'
p25
I1
sS'skin'
p26
I1
sS'go'
p27
I2
sS'bomb'
p28
I15
sS'viurs'
p29
I1
sS'causes'
p30
I1
sS'to'
p31
I96
sS'program'
p32
I2
sS'quaeda'
p33
I1
sS'safety'
p34
I1
sS'suffered'
p35
I1
sS'quora'
p36
I1
sS'keeping'
p37
I1
sS'engineered'
p38
I2
sS'stolen'
p39
I2
sS'every'
p40
I1
sS'enslaved'
p41
I6
sS'difference'
p42
I1
sS'impressive'
p43
I1
sS'did'
p44
I5
sS'celebrity'
p45
I1
sS'leave'
p46
I1
sS'small'
p47
I3
sS'enhance'
p48
I1
sS'economically'
p49
I1
sS'manslaughter'
p50
I1
sS'prevent'
p51
I3
sS'japanese'
p52
I1
sS'worm'
p53
I2
sS'battle'
p54
I1
sS'likely'
p55
I1
sS'blowing'
p56
I2
sS'download'
p57
I1
sS'bacterial'
p58
I1
sS'targets'
p59
I1
sS'will'
p60
I7
sS'what'
p61
I80
sS'richard'
p62
I1
sS'witnessed'
p63
I1
sS'vampire'
p64
I2
sS'access'
p65
I1
sS'indian'
p66
I2
sS'designing'
p67
I1
sS'new'
p68
I3
sS'ever'
p69
I3
sS'guns'
p70
I1
sS'led'
p71
I1
sS'slaying'
p72
I3
sS'french'
p73
I1
sS'protection'
p74
I1
sS'groups'
p75
I1
sS'others'
p76
I1
sS'change'
p77
I1
sS'items'
p78
I1
sS'titanic'
p79
I1
sS'experience'
p80
I1
sS'airport'
p81
I1
sS'chemical'
p82
I3
sS'defeat'
p83
I8
sS'usually'
p84
I1
sS'opinion'
p85
I1
sS'makes'
p86
I1
sS'ambulances'
p87
I1
sS'useful'
p88
I1
sS'family'
p89
I1
sS'nearest'
p90
I3
sS'win'
p91
I1
sS'private'
p92
I8
sS'highly'
p93
I1
sS'moral'
p94
I1
sS'chunks'
p95
I1
sS'crime'
p96
I3
sS'armed'
p97
I2
sS'use'
p98
I10
sS'overheat'
p99
I1
sS'would'
p100
I4
sS'army'
p101
I16
sS'revelation'
p102
I1
sS'two'
p103
I1
sS'next'
p104
I1
sS'scenarios'
p105
I1
sS'camera'
p106
I3
sS'call'
p107
I1
sS'opposed'
p108
I1
sS'australian'
p109
I1
sS'civilians'
p110
I1
sS'more'
p111
I4
sS'started'
p112
I1
sS'wars'
p113
I4
sS'it'
p114
I19
sS'phone'
p115
I1
sS'berlin'
p116
I1
sS'trojans'
p117
I5
sS'iii'
p118
I1
sS'easiest'
p119
I1
sS'me'
p120
I5
sS'account'
p121
I5
sS'this'
p122
I1
sS'work'
p123
I5
sS'modified'
p124
I15
sS'movies'
p125
I1
sS'mall'
p126
I1
sS'can'
p127
I46
sS'growing'
p128
I1
sS'making'
p129
I5
sS'my'
p130
I10
sS'history'
p131
I3
sS'control'
p132
I1
sS'spy'
p133
I1
sS'programming'
p134
I1
sS'india'
p135
I2
sS'topic'
p136
I1
sS"n't"
p137
I8
sS'foods'
p138
I3
sS'keep'
p139
I1
sS'hydrogen'
p140
I1
sS'species'
p141
I1
sS'simple'
p142
I2
sS'homicide'
p143
I2
sS'information'
p144
I1
sS'malware'
p145
I1
sS'africans'
p146
I4
sS'occur'
p147
I1
sS'machine'
p148
I1
sS'located'
p149
I1
sS'vodafone'
p150
I1
sS'pizza'
p151
I1
sS'armies'
p152
I2
sS'plant'
p153
I2
sS'designer'
p154
I1
sS'okay'
p155
I1
sS'tried'
p156
I1
sS'disassemble'
p157
I1
sS'may'
p158
I1
sS'after'
p159
I1
sS'mac'
p160
I1
sS'designed'
p161
I1
sS'such'
p162
I1
sS'grow'
p163
I1
sS'times'
p164
I1
sS'a'
I80
sS'effective'
p165
I2
sS'conscious'
p166
I1
sS'bugs'
p167
I1
sS'so'
p168
I4
sS'improvised'
p169
I1
sS'worst'
p170
I1
sS'legitimate'
p171
I1
sS'blind'
p172
I1
sS'help'
p173
I2
sS'essence'
p174
I1
sS'over'
p175
I1
sS'course'
p176
I1
sS'paper'
p177
I1
sS'through'
p178
I1
sS'existence'
p179
I1
sS'suffer'
p180
I1
sS'controllable'
p181
I1
sS'police'
p182
I1
sS'how'
p183
I105
sS'softpedia'
p184
I1
sS'interesting'
p185
I1
sS'writing'
p186
I2
sS'hidden'
p187
I2
sS'main'
p188
I1
sS'overcome'
p189
I1
sS'gmos'
p190
I1
sS'good'
p191
I4
sS'crash'
p192
I1
sS'combination'
p193
I1
sS'food'
p194
I8
sS'killer'
p195
I1
sS'hurting'
p196
I1
sS'they'
p197
I1
sS'not'
p198
I1
sS'now'
p199
I1
sS'killed'
p200
I2
sS'bank'
p201
I6
sS'bread'
p202
I1
sS'term'
p203
I1
sS'edit'
p204
I1
sS'attacks'
p205
I2
sS'someone'
p206
I12
sS'bonn'
p207
I1
sS'found'
p208
I2
sS'myself'
p209
I2
sS'mean'
p210
I3
sS'harm'
p211
I2
sS'activate'
p212
I1
sS'england'
p213
I1
sS'generation'
p214
I1
sS'reduce'
p215
I1
sS'society'
p216
I1
sS'passwords'
p217
I2
sS'our'
p218
I3
sS'really'
p219
I1
sS'hacker'
p220
I3
sS'living'
p221
I1
sS'network'
p222
I1
sS'profit'
p223
I1
sS'cameras'
p224
I1
sS'factory'
p225
I3
sS'research'
p226
I2
sS'health'
p227
I3
sS'hacked'
p228
I1
sS'internet'
p229
I1
sS'cause'
p230
I5
sS'shows'
p231
I1
sS'shut'
p232
I1
sS"'super'"
p233
I1
sS'defenses'
p234
I1
sS'free'
p235
I1
sS'muller'
p236
I1
sS'training'
p237
I1
sS'language'
p238
I3
sS'steal'
p239
I1
sS'could'
p240
I3
sS'computers'
p241
I1
sS'kashmir'
p242
I1
sS'british'
p243
I1
sS'feasible'
p244
I1
sS'thing'
p245
I4
sS'american'
p246
I1
sS'firefight'
p247
I1
sS'boarders'
p248
I1
sS'think'
p249
I4
sS'first'
p250
I1
sS'exotic'
p251
I1
sS'cheese'
p252
I1
sS'feel'
p253
I4
sS'contractors'
p254
I1
sS'powerful'
p255
I1
sS'number'
p256
I2
sS'one'
p257
I3
sS'fast'
p258
I1
sS'another'
p259
I1
sS'custom'
p260
I1
sS'engineer'
p261
I1
sS'horse'
p262
I1
sS'basketball'
p263
I1
sS'unknown'
p264
I1
sS'caught'
p265
I1
sS'anyone'
p266
I6
sS'attack'
p267
I3
sS'station'
p268
I1
sS'tragic'
p269
I1
sS'hypothetical'
p270
I2
sS'legally'
p271
I1
sS'white'
p272
I3
sS'destruction'
p273
I2
sS'nastiest'
p274
I1
sS'friend'
p275
I1
sS'bloodshed'
p276
I2
sS'that'
p277
I7
sS'tool'
p278
I1
sS'exactly'
p279
I3
sS'part'
p280
I2
sS'1911'
p281
I1
sS'uranium'
p282
I2
sS'than'
p283
I2
sS'10'
p284
I1
sS'pakistani'
p285
I1
sS'second'
p286
I1
sS'nations'
p287
I1
sS'project'
p288
I1
sS'decided'
p289
I1
sS'flame'
p290
I1
sS'budget'
p291
I2
sS'hacking'
p292
I7
sS'and'
p293
I16
sS'fork'
p294
I1
sS'mind'
p295
I2
sS'say'
p296
I1
sS'have'
p297
I6
sS'need'
p298
I2
sS'seen'
p299
I1
sS'any'
p300
I2
sS'efficient'
p301
I1
sS'self'
p302
I1
sS'build'
p303
I4
sS'which'
p304
I5
sS'online'
p305
I1
sS'genetically'
p306
I18
sS'channel'
p307
I1
sS'play'
p308
I3
sS'committing'
p309
I1
sS'combat'
p310
I2
sS'track'
p311
I1
sS'who'
p312
I6
sS'paid'
p313
I1
sS'harmful'
p314
I2
sS'most'
p315
I13
sS'virus'
p316
I19
sS'detect'
p317
I3
sS'germany'
p318
I2
sS'why'
p319
I18
sS'strategies'
p320
I1
sS'especially'
p321
I1
sS'windows'
p322
I1
sS'infections'
p323
I1
sS'ways'
p324
I6
sS'attacking'
p325
I1
sS'golf'
p326
I1
sS'rebels'
p327
I2
sS'german'
p328
I1
sS'cheap'
p329
I1
sS'discovered'
p330
I2
sS'colors'
p331
I1
sS'destructions'
p332
I1
sS'hack'
p333
I10
sS'earth'
p334
I1
sS'fear'
p335
I14
sS'find'
p336
I1
sS'sharks'
p337
I2
sS'based'
p338
I1
sS'with'
p339
I8
sS'explain'
p340
I1
sS'written'
p341
I1
sS'should'
p342
I4
sS'penalty'
p343
I1
sS'entities'
p344
I1
sS'bases'
p345
I1
sS'black'
p346
I3
sS'judged'
p347
I2
sS'enslave'
p348
I5
sS'do'
p349
I53
sS'hotmail'
p350
I1
sS'get'
p351
I11
sS'beat'
p352
I1
sS'banned'
p353
I1
sS'massacre'
p354
I2
sS'keylogger'
p355
I1
sS'trees'
p356
I1
sS'ones'
p357
I1
sS'fastest'
p358
I1
sS'during'
p359
I9
sS'absorbant'
p360
I1
sS'trjojans'
p361
I1
sS'bad'
p362
I6
sS'common'
p363
I1
sS'bombs'
p364
I5
sS'where'
p365
I12
sS'victim'
p366
I1
sS'intelligence'
p367
I1
sS'humans'
p368
I5
sS'see'
p369
I2
sS'computer'
p370
I36
sS'are'
p371
I33
sS'best'
p372
I7
sS'concern'
p373
I1
sS'annihilation'
p374
I1
sS'co2'
p375
I1
sS'federal'
p376
I1
sS'nuclear'
p377
I7
sS'review'
p378
I1
sS'currently'
p379
I1
sS'thermonuclear'
p380
I3
sS'weapons'
p381
I9
sS'outside'
p382
I1
sS'unable'
p383
I1
sS'between'
p384
I2
sS'we'
p385
I15
sS'creating'
p386
I1
sS'originated'
p387
I1
sS'felony'
p388
I2
sS'job'
p389
I1
sS'key'
p390
I1
sS'20'
p391
I1
sS'cities'
p392
I1
sS'come'
p393
I1
sS'kitchen'
p394
I3
sS'both'
p395
I1
sS'protect'
p396
I7
sS'many'
p397
I6
sS'equal'
p398
I1
sS'against'
p399
I2
sS'connection'
p400
I1
sS'intercept'
p401
I2
sS'adapted'
p402
I1
sS'load'
p403
I1
sS'hackers'
p404
I5
sS'wall'
p405
I1
sS'unicorns'
p406
I1
sS'viruses'
p407
I21
sS'respect'
p408
I2
sS'hitler'
p409
I1
sS'accuse'
p410
I1
sS'videos'
p411
I2
sS'create'
p412
I4
sS'been'
p413
I3
sS'nueclear'
p414
I2
sS'pc'
p415
I2
sS'genetic'
p416
I13
sS'spread'
p417
I1
sS'huge'
p418
I1
sS'improve'
p419
I1
sS'kurds'
p420
I1
sS'life'
p421
I1
sS'climate'
p422
I1
sS'antivirus'
p423
I3
sS'compromised'
p424
I1
sS'whatsapp'
p425
I1
sS'trojan'
p426
I8
sS'supermen'
p427
I1
sS'look'
p428
I1
sS'as'
p429
I4
sS'strangest'
p430
I1
sS'fud'
p431
I1
sS'country'
p432
I1
sS'ultra'
p433
I1
sS'is'
p434
I59
sS'them'
p435
I3
sS'ii'
p436
I1
sS'itself'
p437
I1
sS'in'
p438
I27
sS'rid'
p439
I1
sS'technology'
p440
I1
sS'if'
p441
I4
sS'different'
p442
I1
sS'develop'
p443
I1
sS'media'
p444
I1
sS'make'
p445
I25
sS's'
I1
sS'surveillance'
p446
I2
sS'followers'
p447
I2
sS'babies'
p448
I1
sS'events'
p449
I1
sS'neutron'
p450
I3
sS'difficult'
p451
I1
sS'used'
p452
I5
sS'social'
p453
I1
sS'drives'
p454
I1
sS'military'
p455
I2
sS'betray'
p456
I1
sS'recent'
p457
I2
sS'safe'
p458
I1
sS'scenario'
p459
I1
sS'programs'
p460
I2
sS'i'
I49
sS'weapon'
p461
I7
sS'person'
p462
I5
sS'without'
p463
I5
sS'greatest'
p464
I1
sS'components'
p465
I1
sS'swiss'
p466
I1
sS'the'
p467
I83
sS'creators'
p468
I1
sS'spend'
p469
I1
sS'lynching'
p470
I1
sS'peace'
p471
I2
sS'arming'
p472
I5
sS'heavily'
p473
I1
sS'being'
p474
I5
sS'money'
p475
I1
sS'kill'
p476
I13
sS'atomic'
p477
I3
sS'human'
p478
I10
sS'using'
p479
I8
sS'unto'
p480
I1
sS'profitable'
p481
I1
sS'death'
p482
I1
sS'assassination'
p483
I2
sS'shortcut'
p484
I1
sS'day'
p485
I1
sS'source'
p486
I1
sS'add'
p487
I1
sS'stealers'
p488
I1
sS'combine'
p489
I1
sS'logger'
p490
I1
sS'has'
p491
I2
sS'disrupt'
p492
I1
sS'smart'
p493
I1
sS'take'
p494
I2
sS'bio'
p495
I4
sS'victims'
p496
I2
sS'emergency'
p497
I1
sS'big'
p498
I2
sS'possible'
p499
I2
sS'munich'
p500
I1
sS'world'
p501
I6
sS'password'
p502
I3
sS'like'
p503
I5
sS"'ve"
p504
I1
sS'benefit'
p505
I2
sS'steps'
p506
I1
sS'lose'
p507
I1
sS'security'
p508
I3
sS'works'
p509
I1
sS'organisms'
p510
I1
sS'often'
p511
I1
sS'deal'
p512
I1
sS'people'
p513
I19
sS'some'
p514
I8
sS'back'
p515
I2
sS'meters'
p516
I1
sS'home'
p517
I3
sS'total'
p518
I1
sS'genetics'
p519
I1
sS'for'
p520
I13
sS'avoid'
p521
I1
sS'legal'
p522
I2
sS'religion'
p523
I2
sS'barehanded'
p524
I1
sS'does'
p525
I14
sS'mutation'
p526
I1
sS'moderate'
p527
I1
sS'be'
p528
I8
sS'football'
p529
I1
sS'run'
p530
I2
sS'scientific'
p531
I1
sS'business'
p532
I1
sS'manufactured'
p533
I1
sS'feelings'
p534
I1
sS'vietnam'
p535
I1
sS'assemble'
p536
I1
sS'from'
p537
I21
sS'super'
p538
I1
sS'by'
p539
I4
sS'stage'
p540
I1
sS'on'
p541
I8
sS'about'
p542
I5
sS'usa'
p543
I1
sS'getting'
p544
I4
sS'stuxnet'
p545
I1
sS'of'
p546
I20
sS'citizens'
p547
I2
sS'insect'
p548
I2
sS'compatible'
p549
I1
sS'seeds'
p550
I1
sS'stand'
p551
I1
sS'illegal'
p552
I1
sS'commit'
p553
I2
sS'netbus'
p554
I1
sS'os'
p555
I1
sS'or'
p556
I7
sS'own'
p557
I7
sS'nsa'
p558
I1
sS'into'
p559
I2
sS'within'
p560
I2
sS'commitment'
p561
I1
sS'down'
p562
I1
sS'accounts'
p563
I3
sS'nowadays'
p564
I1
sS'your'
p565
I14
sS'theoretically'
p566
I1
sS'area'
p567
I1
sS'there'
p568
I3
sS'hex'
p569
I1
sS'long'
p570
I2
sS'fight'
p571
I1
sS'undetectable'
p572
I1
sS'infected'
p573
I3
sS'editor'
p574
I1
sS'way'
p575
I8
sS'breeding'
p576
I1
sS'was'
p577
I12
sS'war'
p578
I17
sS'files'
p579
I1
sS'buy'
p580
I2
sS'immigration'
p581
I1
sS'but'
p582
I1
sS'wireless'
p583
I1
sS'gain'
p584
I1
sS'russian'
p585
I1
sS'true'
p586
I1
sS'eat'
p587
I1
sS'made'
p588
I1
sS'dangerous'
p589
I2
sS'us'
p590
I3
sS'dirty'
p591
I3
sS'pendrive'
p592
I1
sS'fright'
p593
I1
sS'ai'
p594
I1
sS'al'
p595
I1
sS'an'
p596
I2
sS'engineering'
p597
I14
sS'at'
p598
I4
sS'shooting'
p599
I2
sS'syrian'
p600
I2
sS'facebook'
p601
I2
sS'again'
p602
I1
sS'ingredients'
p603
I5
sS'malicious'
p604
I1
sS'when'
p605
I4
sS'reality'
p606
I1
sS'other'
p607
I1
sS'genome'
p608
I1
sS'you'
p609
I13
sS'illegally'
p610
I1
sS"'s"
p611
I4
sS'mustard'
p612
I1
sS'secretly'
p613
I1
sS'time'
p614
I5
sS'utilities'
p615
I2
sS'yahoo'
p616
I1
sS'mahdi'
p617
I1
sS'sides'
p618
I1
sS'remote'
p619
I1
sS'calls'
p620
I1
sS'tricks'
p621
I1
sS'wifi'
p622
I1
sS'youtube'
p623
I2
sS'write'
p624
I3
sS'mass'
p625
I1
sS'teeth'
p626
I1
sS'starting'
p627
I1
sS'profits'
p628
I1
sS'once'
p629
I1
ssS'_mapping'
p630
(dp631
g18
I210
sg19
I243
sg20
I572
sg21
I477
sg22
I246
sg23
I501
sg24
I545
sg25
I156
sg26
I128
sg27
I168
sg28
I402
sg29
I530
sg30
I370
sg31
I2
sg32
I240
sg33
I326
sg34
I562
sg35
I394
sg36
I332
sg37
I366
sg38
I134
sg39
I20
sg40
I82
sg41
I272
sg42
I255
sg43
I389
sg44
I196
sg45
I613
sg46
I434
sg47
I452
sg48
I502
sg49
I271
sg50
I433
sg51
I232
sg52
I573
sg53
I253
sg54
I390
sg55
I386
sg56
I578
sg57
I492
sg58
I408
sg59
I587
sg60
I117
sg61
I7
sg62
I183
sg63
I418
sg64
I439
sg65
I537
sg66
I340
sg67
I500
sg68
I79
sg69
I287
sg70
I559
sg71
I384
sg72
I440
sg73
I571
sg74
I55
sg75
I285
sg76
I301
sg77
I105
sg78
I445
sg79
I349
sg80
I503
sg81
I295
sg82
I398
sg83
I339
sg84
I216
sg85
I67
sg86
I303
sg87
I342
sg88
I524
sg89
I609
sg90
I596
sg91
I358
sg92
I336
sg93
I297
sg94
I282
sg95
I244
sg96
I419
sg97
I329
sg98
I77
sg99
I221
sg100
I277
sg101
I337
sg102
I90
sg103
I328
sg104
I512
sg105
I345
sg106
I552
sg107
I31
sg108
I149
sg109
I229
sg110
I585
sg111
I112
sg112
I547
sg113
I365
sg114
I154
sg115
I557
sg116
I427
sg117
I267
sg118
I387
sg119
I468
sg120
I485
sg121
I19
sg122
I311
sg123
I191
sg124
I101
sg125
I438
sg126
I436
sg127
I35
sg128
I96
sg129
I211
sg130
I18
sg131
I415
sg132
I526
sg133
I554
sg134
I514
sg135
I567
sg136
I161
sg137
I75
sg138
I146
sg139
I510
sg140
I443
sg141
I122
sg142
I447
sg143
I422
sg144
I491
sg145
I248
sg146
I278
sg147
I132
sg148
I245
sg149
I251
sg150
I486
sg151
I381
sg152
I569
sg153
I460
sg154
I119
sg155
I588
sg156
I76
sg157
I406
sg158
I480
sg159
I237
sg160
I65
sg161
I519
sg162
I249
sg163
I81
sg164
I589
sS'a'
I29
sg165
I455
sg166
I283
sg167
I6
sg168
I142
sg169
I451
sg170
I209
sg171
I586
sg172
I550
sg173
I37
sg174
I290
sg175
I507
sg176
I391
sg177
I53
sg178
I601
sg179
I199
sg180
I474
sg181
I304
sg182
I231
sg183
I1
sg184
I511
sg185
I518
sg186
I515
sg187
I236
sg188
I465
sg189
I314
sg190
I170
sg191
I143
sg192
I226
sg193
I598
sg194
I150
sg195
I30
sg196
I471
sg197
I171
sg198
I534
sg199
I334
sg200
I22
sg201
I476
sg202
I380
sg203
I58
sg204
I529
sg205
I564
sg206
I470
sg207
I462
sg208
I217
sg209
I416
sg210
I59
sg211
I179
sg212
I592
sg213
I286
sg214
I108
sg215
I563
sg216
I182
sg217
I540
sg218
I173
sg219
I220
sg220
I50
sg221
I498
sg222
I254
sg223
I368
sg224
I558
sg225
I597
sg226
I52
sg227
I163
sg228
I39
sg229
I508
sg12
I0
sg230
I371
sg231
I153
sg232
I555
sg233
I135
sg234
I441
sg235
I280
sg236
I184
sg237
I560
sg238
I261
sg239
I475
sg240
I124
sg241
I225
sg242
I343
sg243
I575
sg244
I111
sg245
I139
sg246
I352
sg247
I582
sg248
I602
sg249
I42
sg250
I581
sg251
I127
sg252
I382
sg253
I504
sg254
I374
sg255
I338
sg256
I411
sg257
I86
sg258
I95
sg259
I615
sg260
I126
sg261
I125
sg262
I539
sg263
I377
sg264
I308
sg265
I603
sg266
I36
sg267
I348
sg268
I466
sg269
I413
sg270
I344
sg271
I355
sg272
I273
sg273
I426
sg274
I200
sg275
I420
sg276
I417
sg277
I131
sg278
I538
sg279
I56
sg280
I608
sg281
I350
sg282
I412
sg283
I361
sg284
I208
sg285
I570
sg286
I395
sg287
I330
sg288
I93
sg289
I356
sg290
I213
sg291
I568
sg292
I27
sg293
I118
sg294
I509
sg295
I577
sg296
I331
sg297
I188
sg298
I593
sg299
I294
sg300
I288
sg301
I473
sg302
I28
sg303
I594
sg304
I187
sg305
I481
sg306
I100
sg307
I496
sg308
I375
sg309
I421
sg310
I103
sg311
I535
sg312
I21
sg313
I494
sg314
I162
sg315
I262
sg316
I195
sg317
I175
sg318
I461
sg319
I73
sg320
I580
sg321
I483
sg322
I47
sg323
I409
sg324
I306
sg325
I341
sg326
I378
sg327
I323
sg328
I574
sg329
I446
sg330
I599
sg331
I129
sg332
I612
sg333
I478
sg334
I116
sg335
I296
sg336
I520
sg337
I88
sg338
I193
sg339
I145
sg340
I202
sg341
I516
sg342
I40
sg343
I429
sg344
I367
sg345
I467
sg346
I275
sg347
I309
sg348
I274
sg349
I16
sg350
I192
sg351
I214
sg352
I307
sg353
I72
sg354
I431
sg355
I523
sg356
I102
sg357
I130
sg358
I472
sg359
I12
sg360
I99
sg361
I250
sg362
I138
sg363
I533
sg364
I404
sg365
I167
sg366
I527
sg367
I610
sg368
I94
sg369
I505
sg370
I25
sg371
I106
sg372
I305
sg373
I144
sg374
I425
sg375
I98
sg376
I230
sg377
I8
sg378
I176
sg379
I133
sg380
I405
sg381
I9
sg382
I115
sg383
I227
sg384
I256
sg385
I84
sg386
I107
sg387
I258
sg388
I423
sg389
I61
sg390
I63
sg391
I463
sg392
I393
sg393
I197
sg394
I448
sg395
I396
sg396
I23
sg397
I147
sg398
I299
sg399
I407
sg400
I43
sg401
I489
sg402
I113
sg403
I228
sg404
I48
sg405
I428
sg406
I137
sg407
I190
sg408
I298
sg409
I166
sg410
I614
sg411
I493
sg412
I121
sg413
I189
sg414
I459
sg415
I38
sg416
I69
sg417
I506
sg418
I595
sg419
I561
sg420
I321
sg421
I114
sg422
I104
sg423
I264
sg424
I45
sg425
I49
sg426
I257
sg427
I109
sg428
I266
sg429
I159
sg430
I292
sg431
I522
sg432
I289
sg433
I97
sg434
I44
sg435
I238
sg436
I392
sg437
I242
sg438
I32
sg439
I313
sg440
I279
sg441
I17
sg442
I324
sg443
I488
sg444
I542
sg445
I78
sS's'
I528
sg446
I551
sg447
I333
sg448
I120
sg449
I383
sg450
I401
sg451
I487
sg452
I11
sg453
I541
sg454
I212
sg455
I373
sg456
I590
sg457
I424
sg458
I155
sg459
I351
sg460
I265
sS'i'
I41
sg461
I400
sg462
I458
sg463
I268
sg464
I89
sg465
I450
sg466
I484
sg467
I13
sg468
I222
sg469
I363
sg470
I430
sg471
I359
sg472
I320
sg473
I354
sg474
I276
sg475
I364
sg476
I3
sg477
I410
sg478
I68
sg479
I110
sg480
I479
sg481
I360
sg482
I300
sg483
I414
sg484
I219
sg485
I136
sg486
I247
sg487
I62
sg488
I34
sg489
I497
sg490
I64
sg491
I74
sg492
I553
sg493
I347
sg494
I607
sg495
I399
sg496
I432
sg497
I33
sg498
I160
sg499
I174
sg500
I435
sg501
I14
sg502
I270
sg503
I87
sg504
I293
sg505
I181
sg506
I453
sg507
I85
sg508
I291
sg509
I204
sg510
I499
sg511
I263
sg512
I317
sg513
I148
sg514
I206
sg515
I239
sg516
I464
sg517
I444
sg518
I584
sg519
I186
sg520
I172
sg521
I194
sg522
I566
sg523
I388
sg524
I469
sg525
I57
sg526
I157
sg527
I215
sg528
I71
sg529
I376
sg530
I165
sg531
I152
sg532
I611
sg533
I591
sg534
I583
sg535
I385
sg536
I241
sg537
I26
sg538
I346
sg539
I224
sg540
I315
sg541
I54
sg542
I140
sg543
I362
sg544
I233
sg545
I203
sg546
I91
sg547
I353
sg548
I5
sg549
I517
sg550
I177
sg551
I185
sg552
I60
sg553
I604
sg554
I525
sg555
I66
sg556
I180
sg557
I335
sg558
I260
sg559
I198
sg560
I319
sg561
I312
sg562
I556
sg563
I482
sg564
I543
sg565
I24
sg566
I123
sg567
I513
sg568
I327
sg569
I531
sg570
I164
sg571
I318
sg572
I521
sg573
I234
sg574
I532
sg575
I457
sg576
I158
sg577
I10
sg578
I15
sg579
I235
sg580
I169
sg581
I372
sg582
I454
sg583
I546
sg584
I223
sg585
I576
sg586
I302
sg587
I379
sg588
I456
sg589
I252
sg590
I281
sg591
I403
sg592
I218
sg593
I316
sg594
I284
sg595
I325
sg596
I4
sg597
I70
sg598
I259
sg599
I437
sg600
I322
sg601
I201
sg602
I549
sg603
I449
sg604
I207
sg605
I151
sg606
I548
sg607
I310
sg608
I92
sg609
I46
sg610
I600
sg611
I141
sg612
I178
sg613
I606
sg614
I83
sg615
I605
sg616
I544
sg617
I205
sg618
I397
sg619
I536
sg620
I490
sg621
I579
sg622
I269
sg623
I495
sg624
I51
sg625
I442
sg626
I80
sg627
I565
sg628
I369
sg629
I357
ssS'_reverse_mapping'
p632
(lp633
g12
ag183
ag31
ag476
ag596
ag548
ag167
ag61
ag377
ag381
ag577
ag452
ag359
ag467
ag501
ag578
ag349
ag441
ag130
ag121
ag39
ag312
ag200
ag396
ag565
ag370
ag537
ag292
ag302
aS'a'
ag195
ag107
ag438
ag497
ag488
ag127
ag266
ag173
ag415
ag228
ag342
aS'i'
ag249
ag400
ag434
ag424
ag609
ag322
ag404
ag425
ag220
ag624
ag226
ag177
ag541
ag74
ag279
ag525
ag203
ag210
ag552
ag389
ag487
ag390
ag490
ag160
ag555
ag85
ag478
ag416
ag597
ag528
ag353
ag319
ag491
ag137
ag156
ag98
ag445
ag68
ag626
ag163
ag40
ag614
ag385
ag507
ag257
ag503
ag337
ag464
ag102
ag546
ag608
ag288
ag368
ag258
ag128
ag433
ag375
ag360
ag306
ag124
ag356
ag310
ag422
ag77
ag371
ag386
ag214
ag427
ag479
ag244
ag111
ag402
ag421
ag382
ag334
ag60
ag293
ag154
ag448
ag412
ag141
ag566
ag240
ag261
ag260
ag251
ag26
ag331
ag357
ag277
ag147
ag379
ag38
ag233
ag485
ag406
ag362
ag245
ag542
ag611
ag168
ag191
ag373
ag339
ag138
ag397
ag513
ag108
ag194
ag605
ag531
ag231
ag114
ag458
ag25
ag526
ag576
ag429
ag498
ag136
ag314
ag227
ag570
ag530
ag409
ag365
ag27
ag580
ag190
ag197
ag520
ag218
ag499
ag317
ag378
ag550
ag612
ag211
ag556
ag505
ag216
ag62
ag236
ag551
ag519
ag304
ag297
ag413
ag407
ag123
ag350
ag338
ag521
ag316
ag44
ag393
ag559
ag179
ag274
ag601
ag340
ag545
ag509
ag617
ag514
ag604
ag284
ag170
ag18
ag129
ag454
ag290
ag351
ag527
ag84
ag208
ag592
ag484
ag219
ag99
ag468
ag584
ag539
ag241
ag192
ag383
ag403
ag109
ag376
ag182
ag51
ag544
ag573
ag579
ag187
ag159
ag435
ag515
ag32
ag536
ag437
ag19
ag95
ag148
ag22
ag486
ag145
ag162
ag361
ag149
ag589
ag53
ag222
ag42
ag384
ag426
ag387
ag598
ag558
ag238
ag315
ag511
ag423
ag460
ag428
ag117
ag463
ag622
ag502
ag49
ag41
ag272
ag348
ag346
ag474
ag100
ag146
ag440
ag235
ag590
ag94
ag166
ag594
ag75
ag213
ag69
ag300
ag432
ag174
ag508
ag430
ag504
ag299
ag81
ag335
ag93
ag408
ag398
ag482
ag76
ag586
ag86
ag181
ag372
ag324
ag352
ag264
ag347
ag607
ag122
ag561
ag439
ag189
ag540
ag593
ag512
ag571
ag560
ag472
ag420
ag600
ag327
ag442
ag595
ag33
ag568
ag103
ag97
ag287
ag296
ag36
ag447
ag199
ag557
ag92
ag101
ag255
ag83
ag66
ag325
ag87
ag242
ag270
ag105
ag538
ag493
ag267
ag79
ag281
ag459
ag246
ag547
ag473
ag271
ag289
ag629
ag91
ag471
ag481
ag283
ag543
ag469
ag475
ag113
ag37
ag344
ag223
ag628
ag30
ag230
ag581
ag455
ag254
ag308
ag529
ag263
ag326
ag587
ag202
ag151
ag252
ag449
ag71
ag535
ag55
ag118
ag523
ag43
ag54
ag176
ag436
ag392
ag35
ag286
ag395
ag618
ag82
ag495
ag461
ag450
ag28
ag591
ag364
ag380
ag157
ag399
ag58
ag323
ag477
ag256
ag282
ag269
ag483
ag131
ag209
ag276
ag63
ag96
ag275
ag309
ag143
ag388
ag457
ag374
ag273
ag116
ag405
ag343
ag470
ag354
ag496
ag50
ag46
ag500
ag126
ag599
ag125
ag64
ag72
ag234
ag625
ag140
ag517
ag78
ag329
ag142
ag394
ag603
ag465
ag169
ag47
ag506
ag582
ag165
ag588
ag575
ag462
ag414
ag153
ag318
ag207
ag391
ag516
ag188
ag268
ag345
ag119
ag524
ag206
ag196
ag358
ag301
ag180
ag239
ag201
ag21
ag333
ag480
ag158
ag305
ag563
ag321
ag466
ag120
ag150
ag451
ag443
ag401
ag620
ag144
ag57
ag411
ag313
ag623
ag307
ag489
ag221
ag510
ag67
ag23
ag48
ag80
ag253
ag369
ag417
ag175
ag229
ag294
ag139
ag184
ag104
ag567
ag134
ag186
ag341
ag549
ag185
ag161
ag336
ag572
ag431
ag355
ag88
ag554
ag132
ag366
aS's'
ag204
ag29
ag569
ag574
ag363
ag198
ag311
ag619
ag65
ag278
ag262
ag217
ag453
ag444
ag564
ag616
ag24
ag583
ag112
ag606
ag602
ag172
ag446
ag106
ag492
ag133
ag232
ag562
ag115
ag224
ag70
ag237
ag419
ag34
ag215
ag205
ag627
ag522
ag135
ag291
ag152
ag285
ag73
ag20
ag52
ag328
ag243
ag585
ag295
ag56
ag621
ag320
ag250
ag247
ag534
ag518
ag110
ag171
ag59
ag155
ag164
ag456
ag533
ag212
ag298
ag303
ag418
ag90
ag225
ag193
ag330
ag610
ag178
ag248
ag265
ag553
ag615
ag613
ag494
ag280
ag89
ag367
ag532
ag332
ag45
ag410
ag259
asbsS'max_document_length'
p634
I26
sS'_tokenizer'
p635
ctensorflow.contrib.learn.python.learn.preprocessing.text
tokenizer
p636
sS'min_frequency'
p637
I0
sb.